ARM GAS  C:\Users\Nicolas\AppData\Local\Temp\ccsoban6.s 			page 1


   1              		.cpu cortex-m0plus
   2              		.eabi_attribute 20, 1
   3              		.eabi_attribute 21, 1
   4              		.eabi_attribute 23, 3
   5              		.eabi_attribute 24, 1
   6              		.eabi_attribute 25, 1
   7              		.eabi_attribute 26, 1
   8              		.eabi_attribute 30, 1
   9              		.eabi_attribute 34, 0
  10              		.eabi_attribute 18, 4
  11              		.file	"stm32l0xx_hal_msp.c"
  12              		.text
  13              	.Ltext0:
  14              		.cfi_sections	.debug_frame
  15              		.section	.text.HAL_MspInit,"ax",%progbits
  16              		.align	1
  17              		.global	HAL_MspInit
  18              		.syntax unified
  19              		.code	16
  20              		.thumb_func
  21              		.fpu softvfp
  23              	HAL_MspInit:
  24              	.LFB34:
  25              		.file 1 "Src/stm32l0xx_hal_msp.c"
   1:Src/stm32l0xx_hal_msp.c **** /* USER CODE BEGIN Header */
   2:Src/stm32l0xx_hal_msp.c **** /**
   3:Src/stm32l0xx_hal_msp.c ****   ******************************************************************************
   4:Src/stm32l0xx_hal_msp.c ****   * File Name          : stm32l0xx_hal_msp.c
   5:Src/stm32l0xx_hal_msp.c ****   * Description        : This file provides code for the MSP Initialization 
   6:Src/stm32l0xx_hal_msp.c ****   *                      and de-Initialization codes.
   7:Src/stm32l0xx_hal_msp.c ****   ******************************************************************************
   8:Src/stm32l0xx_hal_msp.c ****   ** This notice applies to any and all portions of this file
   9:Src/stm32l0xx_hal_msp.c ****   * that are not between comment pairs USER CODE BEGIN and
  10:Src/stm32l0xx_hal_msp.c ****   * USER CODE END. Other portions of this file, whether 
  11:Src/stm32l0xx_hal_msp.c ****   * inserted by the user or by software development tools
  12:Src/stm32l0xx_hal_msp.c ****   * are owned by their respective copyright owners.
  13:Src/stm32l0xx_hal_msp.c ****   *
  14:Src/stm32l0xx_hal_msp.c ****   * COPYRIGHT(c) 2019 STMicroelectronics
  15:Src/stm32l0xx_hal_msp.c ****   *
  16:Src/stm32l0xx_hal_msp.c ****   * Redistribution and use in source and binary forms, with or without modification,
  17:Src/stm32l0xx_hal_msp.c ****   * are permitted provided that the following conditions are met:
  18:Src/stm32l0xx_hal_msp.c ****   *   1. Redistributions of source code must retain the above copyright notice,
  19:Src/stm32l0xx_hal_msp.c ****   *      this list of conditions and the following disclaimer.
  20:Src/stm32l0xx_hal_msp.c ****   *   2. Redistributions in binary form must reproduce the above copyright notice,
  21:Src/stm32l0xx_hal_msp.c ****   *      this list of conditions and the following disclaimer in the documentation
  22:Src/stm32l0xx_hal_msp.c ****   *      and/or other materials provided with the distribution.
  23:Src/stm32l0xx_hal_msp.c ****   *   3. Neither the name of STMicroelectronics nor the names of its contributors
  24:Src/stm32l0xx_hal_msp.c ****   *      may be used to endorse or promote products derived from this software
  25:Src/stm32l0xx_hal_msp.c ****   *      without specific prior written permission.
  26:Src/stm32l0xx_hal_msp.c ****   *
  27:Src/stm32l0xx_hal_msp.c ****   * THIS SOFTWARE IS PROVIDED BY THE COPYRIGHT HOLDERS AND CONTRIBUTORS "AS IS"
  28:Src/stm32l0xx_hal_msp.c ****   * AND ANY EXPRESS OR IMPLIED WARRANTIES, INCLUDING, BUT NOT LIMITED TO, THE
  29:Src/stm32l0xx_hal_msp.c ****   * IMPLIED WARRANTIES OF MERCHANTABILITY AND FITNESS FOR A PARTICULAR PURPOSE ARE
  30:Src/stm32l0xx_hal_msp.c ****   * DISCLAIMED. IN NO EVENT SHALL THE COPYRIGHT HOLDER OR CONTRIBUTORS BE LIABLE
  31:Src/stm32l0xx_hal_msp.c ****   * FOR ANY DIRECT, INDIRECT, INCIDENTAL, SPECIAL, EXEMPLARY, OR CONSEQUENTIAL
  32:Src/stm32l0xx_hal_msp.c ****   * DAMAGES (INCLUDING, BUT NOT LIMITED TO, PROCUREMENT OF SUBSTITUTE GOODS OR
  33:Src/stm32l0xx_hal_msp.c ****   * SERVICES; LOSS OF USE, DATA, OR PROFITS; OR BUSINESS INTERRUPTION) HOWEVER
ARM GAS  C:\Users\Nicolas\AppData\Local\Temp\ccsoban6.s 			page 2


  34:Src/stm32l0xx_hal_msp.c ****   * CAUSED AND ON ANY THEORY OF LIABILITY, WHETHER IN CONTRACT, STRICT LIABILITY,
  35:Src/stm32l0xx_hal_msp.c ****   * OR TORT (INCLUDING NEGLIGENCE OR OTHERWISE) ARISING IN ANY WAY OUT OF THE USE
  36:Src/stm32l0xx_hal_msp.c ****   * OF THIS SOFTWARE, EVEN IF ADVISED OF THE POSSIBILITY OF SUCH DAMAGE.
  37:Src/stm32l0xx_hal_msp.c ****   *
  38:Src/stm32l0xx_hal_msp.c ****   ******************************************************************************
  39:Src/stm32l0xx_hal_msp.c ****   */
  40:Src/stm32l0xx_hal_msp.c **** /* USER CODE END Header */
  41:Src/stm32l0xx_hal_msp.c **** 
  42:Src/stm32l0xx_hal_msp.c **** /* Includes ------------------------------------------------------------------*/
  43:Src/stm32l0xx_hal_msp.c **** #include "main.h"
  44:Src/stm32l0xx_hal_msp.c **** /* USER CODE BEGIN Includes */
  45:Src/stm32l0xx_hal_msp.c **** 
  46:Src/stm32l0xx_hal_msp.c **** /* USER CODE END Includes */
  47:Src/stm32l0xx_hal_msp.c **** 
  48:Src/stm32l0xx_hal_msp.c **** /* Private typedef -----------------------------------------------------------*/
  49:Src/stm32l0xx_hal_msp.c **** /* USER CODE BEGIN TD */
  50:Src/stm32l0xx_hal_msp.c **** 
  51:Src/stm32l0xx_hal_msp.c **** /* USER CODE END TD */
  52:Src/stm32l0xx_hal_msp.c **** 
  53:Src/stm32l0xx_hal_msp.c **** /* Private define ------------------------------------------------------------*/
  54:Src/stm32l0xx_hal_msp.c **** /* USER CODE BEGIN Define */
  55:Src/stm32l0xx_hal_msp.c ****  
  56:Src/stm32l0xx_hal_msp.c **** /* USER CODE END Define */
  57:Src/stm32l0xx_hal_msp.c **** 
  58:Src/stm32l0xx_hal_msp.c **** /* Private macro -------------------------------------------------------------*/
  59:Src/stm32l0xx_hal_msp.c **** /* USER CODE BEGIN Macro */
  60:Src/stm32l0xx_hal_msp.c **** 
  61:Src/stm32l0xx_hal_msp.c **** /* USER CODE END Macro */
  62:Src/stm32l0xx_hal_msp.c **** 
  63:Src/stm32l0xx_hal_msp.c **** /* Private variables ---------------------------------------------------------*/
  64:Src/stm32l0xx_hal_msp.c **** /* USER CODE BEGIN PV */
  65:Src/stm32l0xx_hal_msp.c **** 
  66:Src/stm32l0xx_hal_msp.c **** /* USER CODE END PV */
  67:Src/stm32l0xx_hal_msp.c **** 
  68:Src/stm32l0xx_hal_msp.c **** /* Private function prototypes -----------------------------------------------*/
  69:Src/stm32l0xx_hal_msp.c **** /* USER CODE BEGIN PFP */
  70:Src/stm32l0xx_hal_msp.c **** 
  71:Src/stm32l0xx_hal_msp.c **** /* USER CODE END PFP */
  72:Src/stm32l0xx_hal_msp.c **** 
  73:Src/stm32l0xx_hal_msp.c **** /* External functions --------------------------------------------------------*/
  74:Src/stm32l0xx_hal_msp.c **** /* USER CODE BEGIN ExternalFunctions */
  75:Src/stm32l0xx_hal_msp.c **** 
  76:Src/stm32l0xx_hal_msp.c **** /* USER CODE END ExternalFunctions */
  77:Src/stm32l0xx_hal_msp.c **** 
  78:Src/stm32l0xx_hal_msp.c **** /* USER CODE BEGIN 0 */
  79:Src/stm32l0xx_hal_msp.c **** 
  80:Src/stm32l0xx_hal_msp.c **** /* USER CODE END 0 */
  81:Src/stm32l0xx_hal_msp.c **** /**
  82:Src/stm32l0xx_hal_msp.c ****   * Initializes the Global MSP.
  83:Src/stm32l0xx_hal_msp.c ****   */
  84:Src/stm32l0xx_hal_msp.c **** void HAL_MspInit(void)
  85:Src/stm32l0xx_hal_msp.c **** {
  26              		.loc 1 85 0
  27              		.cfi_startproc
  28              		@ args = 0, pretend = 0, frame = 0
  29              		@ frame_needed = 0, uses_anonymous_args = 0
  30              		@ link register save eliminated.
ARM GAS  C:\Users\Nicolas\AppData\Local\Temp\ccsoban6.s 			page 3


  86:Src/stm32l0xx_hal_msp.c ****   /* USER CODE BEGIN MspInit 0 */
  87:Src/stm32l0xx_hal_msp.c **** 
  88:Src/stm32l0xx_hal_msp.c ****   /* USER CODE END MspInit 0 */
  89:Src/stm32l0xx_hal_msp.c **** 
  90:Src/stm32l0xx_hal_msp.c ****   __HAL_RCC_SYSCFG_CLK_ENABLE();
  31              		.loc 1 90 0
  32 0000 054B     		ldr	r3, .L2
  33 0002 5A6B     		ldr	r2, [r3, #52]
  34 0004 0121     		movs	r1, #1
  35 0006 0A43     		orrs	r2, r1
  36 0008 5A63     		str	r2, [r3, #52]
  91:Src/stm32l0xx_hal_msp.c ****   __HAL_RCC_PWR_CLK_ENABLE();
  37              		.loc 1 91 0
  38 000a 996B     		ldr	r1, [r3, #56]
  39 000c 8022     		movs	r2, #128
  40 000e 5205     		lsls	r2, r2, #21
  41 0010 0A43     		orrs	r2, r1
  42 0012 9A63     		str	r2, [r3, #56]
  92:Src/stm32l0xx_hal_msp.c **** 
  93:Src/stm32l0xx_hal_msp.c ****   /* System interrupt init*/
  94:Src/stm32l0xx_hal_msp.c **** 
  95:Src/stm32l0xx_hal_msp.c ****   /* USER CODE BEGIN MspInit 1 */
  96:Src/stm32l0xx_hal_msp.c **** 
  97:Src/stm32l0xx_hal_msp.c ****   /* USER CODE END MspInit 1 */
  98:Src/stm32l0xx_hal_msp.c **** }
  43              		.loc 1 98 0
  44              		@ sp needed
  45 0014 7047     		bx	lr
  46              	.L3:
  47 0016 C046     		.align	2
  48              	.L2:
  49 0018 00100240 		.word	1073876992
  50              		.cfi_endproc
  51              	.LFE34:
  53              		.section	.text.HAL_I2C_MspInit,"ax",%progbits
  54              		.align	1
  55              		.global	HAL_I2C_MspInit
  56              		.syntax unified
  57              		.code	16
  58              		.thumb_func
  59              		.fpu softvfp
  61              	HAL_I2C_MspInit:
  62              	.LFB35:
  99:Src/stm32l0xx_hal_msp.c **** 
 100:Src/stm32l0xx_hal_msp.c **** /**
 101:Src/stm32l0xx_hal_msp.c **** * @brief I2C MSP Initialization
 102:Src/stm32l0xx_hal_msp.c **** * This function configures the hardware resources used in this example
 103:Src/stm32l0xx_hal_msp.c **** * @param hi2c: I2C handle pointer
 104:Src/stm32l0xx_hal_msp.c **** * @retval None
 105:Src/stm32l0xx_hal_msp.c **** */
 106:Src/stm32l0xx_hal_msp.c **** void HAL_I2C_MspInit(I2C_HandleTypeDef* hi2c)
 107:Src/stm32l0xx_hal_msp.c **** {
  63              		.loc 1 107 0
  64              		.cfi_startproc
  65              		@ args = 0, pretend = 0, frame = 24
  66              		@ frame_needed = 0, uses_anonymous_args = 0
  67              	.LVL0:
ARM GAS  C:\Users\Nicolas\AppData\Local\Temp\ccsoban6.s 			page 4


  68 0000 F0B5     		push	{r4, r5, r6, r7, lr}
  69              	.LCFI0:
  70              		.cfi_def_cfa_offset 20
  71              		.cfi_offset 4, -20
  72              		.cfi_offset 5, -16
  73              		.cfi_offset 6, -12
  74              		.cfi_offset 7, -8
  75              		.cfi_offset 14, -4
  76 0002 87B0     		sub	sp, sp, #28
  77              	.LCFI1:
  78              		.cfi_def_cfa_offset 48
  79 0004 0400     		movs	r4, r0
 108:Src/stm32l0xx_hal_msp.c **** 
 109:Src/stm32l0xx_hal_msp.c ****   GPIO_InitTypeDef GPIO_InitStruct = {0};
  80              		.loc 1 109 0
  81 0006 1422     		movs	r2, #20
  82 0008 0021     		movs	r1, #0
  83 000a 01A8     		add	r0, sp, #4
  84              	.LVL1:
  85 000c FFF7FEFF 		bl	memset
  86              	.LVL2:
 110:Src/stm32l0xx_hal_msp.c ****   if(hi2c->Instance==I2C1)
  87              		.loc 1 110 0
  88 0010 2268     		ldr	r2, [r4]
  89 0012 164B     		ldr	r3, .L7
  90 0014 9A42     		cmp	r2, r3
  91 0016 01D0     		beq	.L6
  92              	.LVL3:
  93              	.L4:
 111:Src/stm32l0xx_hal_msp.c ****   {
 112:Src/stm32l0xx_hal_msp.c ****   /* USER CODE BEGIN I2C1_MspInit 0 */
 113:Src/stm32l0xx_hal_msp.c **** 
 114:Src/stm32l0xx_hal_msp.c ****   /* USER CODE END I2C1_MspInit 0 */
 115:Src/stm32l0xx_hal_msp.c ****   
 116:Src/stm32l0xx_hal_msp.c ****     __HAL_RCC_GPIOA_CLK_ENABLE();
 117:Src/stm32l0xx_hal_msp.c ****     /**I2C1 GPIO Configuration    
 118:Src/stm32l0xx_hal_msp.c ****     PA4     ------> I2C1_SCL
 119:Src/stm32l0xx_hal_msp.c ****     PA10     ------> I2C1_SDA 
 120:Src/stm32l0xx_hal_msp.c ****     */
 121:Src/stm32l0xx_hal_msp.c ****     GPIO_InitStruct.Pin = GPIO_PIN_4;
 122:Src/stm32l0xx_hal_msp.c ****     GPIO_InitStruct.Mode = GPIO_MODE_AF_OD;
 123:Src/stm32l0xx_hal_msp.c ****     GPIO_InitStruct.Pull = GPIO_PULLUP;
 124:Src/stm32l0xx_hal_msp.c ****     GPIO_InitStruct.Speed = GPIO_SPEED_FREQ_VERY_HIGH;
 125:Src/stm32l0xx_hal_msp.c ****     GPIO_InitStruct.Alternate = GPIO_AF3_I2C1;
 126:Src/stm32l0xx_hal_msp.c ****     HAL_GPIO_Init(GPIOA, &GPIO_InitStruct);
 127:Src/stm32l0xx_hal_msp.c **** 
 128:Src/stm32l0xx_hal_msp.c ****     GPIO_InitStruct.Pin = GPIO_PIN_10;
 129:Src/stm32l0xx_hal_msp.c ****     GPIO_InitStruct.Mode = GPIO_MODE_AF_OD;
 130:Src/stm32l0xx_hal_msp.c ****     GPIO_InitStruct.Pull = GPIO_PULLUP;
 131:Src/stm32l0xx_hal_msp.c ****     GPIO_InitStruct.Speed = GPIO_SPEED_FREQ_VERY_HIGH;
 132:Src/stm32l0xx_hal_msp.c ****     GPIO_InitStruct.Alternate = GPIO_AF1_I2C1;
 133:Src/stm32l0xx_hal_msp.c ****     HAL_GPIO_Init(GPIOA, &GPIO_InitStruct);
 134:Src/stm32l0xx_hal_msp.c **** 
 135:Src/stm32l0xx_hal_msp.c ****     /* Peripheral clock enable */
 136:Src/stm32l0xx_hal_msp.c ****     __HAL_RCC_I2C1_CLK_ENABLE();
 137:Src/stm32l0xx_hal_msp.c ****   /* USER CODE BEGIN I2C1_MspInit 1 */
 138:Src/stm32l0xx_hal_msp.c **** 
ARM GAS  C:\Users\Nicolas\AppData\Local\Temp\ccsoban6.s 			page 5


 139:Src/stm32l0xx_hal_msp.c ****   /* USER CODE END I2C1_MspInit 1 */
 140:Src/stm32l0xx_hal_msp.c ****   }
 141:Src/stm32l0xx_hal_msp.c **** 
 142:Src/stm32l0xx_hal_msp.c **** }
  94              		.loc 1 142 0
  95 0018 07B0     		add	sp, sp, #28
  96              		@ sp needed
  97 001a F0BD     		pop	{r4, r5, r6, r7, pc}
  98              	.LVL4:
  99              	.L6:
 100              	.LBB2:
 116:Src/stm32l0xx_hal_msp.c ****     /**I2C1 GPIO Configuration    
 101              		.loc 1 116 0
 102 001c 144C     		ldr	r4, .L7+4
 103              	.LVL5:
 104 001e E36A     		ldr	r3, [r4, #44]
 105 0020 0125     		movs	r5, #1
 106 0022 2B43     		orrs	r3, r5
 107 0024 E362     		str	r3, [r4, #44]
 108 0026 E36A     		ldr	r3, [r4, #44]
 109 0028 2B40     		ands	r3, r5
 110 002a 0093     		str	r3, [sp]
 111 002c 009B     		ldr	r3, [sp]
 112              	.LBE2:
 121:Src/stm32l0xx_hal_msp.c ****     GPIO_InitStruct.Mode = GPIO_MODE_AF_OD;
 113              		.loc 1 121 0
 114 002e 1023     		movs	r3, #16
 115 0030 0193     		str	r3, [sp, #4]
 122:Src/stm32l0xx_hal_msp.c ****     GPIO_InitStruct.Pull = GPIO_PULLUP;
 116              		.loc 1 122 0
 117 0032 1227     		movs	r7, #18
 118 0034 0297     		str	r7, [sp, #8]
 123:Src/stm32l0xx_hal_msp.c ****     GPIO_InitStruct.Speed = GPIO_SPEED_FREQ_VERY_HIGH;
 119              		.loc 1 123 0
 120 0036 0395     		str	r5, [sp, #12]
 124:Src/stm32l0xx_hal_msp.c ****     GPIO_InitStruct.Alternate = GPIO_AF3_I2C1;
 121              		.loc 1 124 0
 122 0038 0326     		movs	r6, #3
 123 003a 0496     		str	r6, [sp, #16]
 125:Src/stm32l0xx_hal_msp.c ****     HAL_GPIO_Init(GPIOA, &GPIO_InitStruct);
 124              		.loc 1 125 0
 125 003c 0596     		str	r6, [sp, #20]
 126:Src/stm32l0xx_hal_msp.c **** 
 126              		.loc 1 126 0
 127 003e 01A9     		add	r1, sp, #4
 128 0040 A020     		movs	r0, #160
 129 0042 C005     		lsls	r0, r0, #23
 130 0044 FFF7FEFF 		bl	HAL_GPIO_Init
 131              	.LVL6:
 128:Src/stm32l0xx_hal_msp.c ****     GPIO_InitStruct.Mode = GPIO_MODE_AF_OD;
 132              		.loc 1 128 0
 133 0048 8023     		movs	r3, #128
 134 004a DB00     		lsls	r3, r3, #3
 135 004c 0193     		str	r3, [sp, #4]
 129:Src/stm32l0xx_hal_msp.c ****     GPIO_InitStruct.Pull = GPIO_PULLUP;
 136              		.loc 1 129 0
 137 004e 0297     		str	r7, [sp, #8]
ARM GAS  C:\Users\Nicolas\AppData\Local\Temp\ccsoban6.s 			page 6


 130:Src/stm32l0xx_hal_msp.c ****     GPIO_InitStruct.Speed = GPIO_SPEED_FREQ_VERY_HIGH;
 138              		.loc 1 130 0
 139 0050 0395     		str	r5, [sp, #12]
 131:Src/stm32l0xx_hal_msp.c ****     GPIO_InitStruct.Alternate = GPIO_AF1_I2C1;
 140              		.loc 1 131 0
 141 0052 0496     		str	r6, [sp, #16]
 132:Src/stm32l0xx_hal_msp.c ****     HAL_GPIO_Init(GPIOA, &GPIO_InitStruct);
 142              		.loc 1 132 0
 143 0054 0595     		str	r5, [sp, #20]
 133:Src/stm32l0xx_hal_msp.c **** 
 144              		.loc 1 133 0
 145 0056 01A9     		add	r1, sp, #4
 146 0058 A020     		movs	r0, #160
 147 005a C005     		lsls	r0, r0, #23
 148 005c FFF7FEFF 		bl	HAL_GPIO_Init
 149              	.LVL7:
 136:Src/stm32l0xx_hal_msp.c ****   /* USER CODE BEGIN I2C1_MspInit 1 */
 150              		.loc 1 136 0
 151 0060 A26B     		ldr	r2, [r4, #56]
 152 0062 8023     		movs	r3, #128
 153 0064 9B03     		lsls	r3, r3, #14
 154 0066 1343     		orrs	r3, r2
 155 0068 A363     		str	r3, [r4, #56]
 156              		.loc 1 142 0
 157 006a D5E7     		b	.L4
 158              	.L8:
 159              		.align	2
 160              	.L7:
 161 006c 00540040 		.word	1073763328
 162 0070 00100240 		.word	1073876992
 163              		.cfi_endproc
 164              	.LFE35:
 166              		.section	.text.HAL_I2C_MspDeInit,"ax",%progbits
 167              		.align	1
 168              		.global	HAL_I2C_MspDeInit
 169              		.syntax unified
 170              		.code	16
 171              		.thumb_func
 172              		.fpu softvfp
 174              	HAL_I2C_MspDeInit:
 175              	.LFB36:
 143:Src/stm32l0xx_hal_msp.c **** 
 144:Src/stm32l0xx_hal_msp.c **** /**
 145:Src/stm32l0xx_hal_msp.c **** * @brief I2C MSP De-Initialization
 146:Src/stm32l0xx_hal_msp.c **** * This function freeze the hardware resources used in this example
 147:Src/stm32l0xx_hal_msp.c **** * @param hi2c: I2C handle pointer
 148:Src/stm32l0xx_hal_msp.c **** * @retval None
 149:Src/stm32l0xx_hal_msp.c **** */
 150:Src/stm32l0xx_hal_msp.c **** 
 151:Src/stm32l0xx_hal_msp.c **** void HAL_I2C_MspDeInit(I2C_HandleTypeDef* hi2c)
 152:Src/stm32l0xx_hal_msp.c **** {
 176              		.loc 1 152 0
 177              		.cfi_startproc
 178              		@ args = 0, pretend = 0, frame = 0
 179              		@ frame_needed = 0, uses_anonymous_args = 0
 180              	.LVL8:
 181 0000 10B5     		push	{r4, lr}
ARM GAS  C:\Users\Nicolas\AppData\Local\Temp\ccsoban6.s 			page 7


 182              	.LCFI2:
 183              		.cfi_def_cfa_offset 8
 184              		.cfi_offset 4, -8
 185              		.cfi_offset 14, -4
 153:Src/stm32l0xx_hal_msp.c **** 
 154:Src/stm32l0xx_hal_msp.c ****   if(hi2c->Instance==I2C1)
 186              		.loc 1 154 0
 187 0002 0268     		ldr	r2, [r0]
 188 0004 074B     		ldr	r3, .L12
 189 0006 9A42     		cmp	r2, r3
 190 0008 00D0     		beq	.L11
 191              	.LVL9:
 192              	.L9:
 155:Src/stm32l0xx_hal_msp.c ****   {
 156:Src/stm32l0xx_hal_msp.c ****   /* USER CODE BEGIN I2C1_MspDeInit 0 */
 157:Src/stm32l0xx_hal_msp.c **** 
 158:Src/stm32l0xx_hal_msp.c ****   /* USER CODE END I2C1_MspDeInit 0 */
 159:Src/stm32l0xx_hal_msp.c ****     /* Peripheral clock disable */
 160:Src/stm32l0xx_hal_msp.c ****     __HAL_RCC_I2C1_CLK_DISABLE();
 161:Src/stm32l0xx_hal_msp.c ****   
 162:Src/stm32l0xx_hal_msp.c ****     /**I2C1 GPIO Configuration    
 163:Src/stm32l0xx_hal_msp.c ****     PA4     ------> I2C1_SCL
 164:Src/stm32l0xx_hal_msp.c ****     PA10     ------> I2C1_SDA 
 165:Src/stm32l0xx_hal_msp.c ****     */
 166:Src/stm32l0xx_hal_msp.c ****     HAL_GPIO_DeInit(GPIOA, GPIO_PIN_4|GPIO_PIN_10);
 167:Src/stm32l0xx_hal_msp.c **** 
 168:Src/stm32l0xx_hal_msp.c ****   /* USER CODE BEGIN I2C1_MspDeInit 1 */
 169:Src/stm32l0xx_hal_msp.c **** 
 170:Src/stm32l0xx_hal_msp.c ****   /* USER CODE END I2C1_MspDeInit 1 */
 171:Src/stm32l0xx_hal_msp.c ****   }
 172:Src/stm32l0xx_hal_msp.c **** 
 173:Src/stm32l0xx_hal_msp.c **** }
 193              		.loc 1 173 0
 194              		@ sp needed
 195 000a 10BD     		pop	{r4, pc}
 196              	.LVL10:
 197              	.L11:
 160:Src/stm32l0xx_hal_msp.c ****   
 198              		.loc 1 160 0
 199 000c 064A     		ldr	r2, .L12+4
 200 000e 936B     		ldr	r3, [r2, #56]
 201 0010 0649     		ldr	r1, .L12+8
 202 0012 0B40     		ands	r3, r1
 203 0014 9363     		str	r3, [r2, #56]
 166:Src/stm32l0xx_hal_msp.c **** 
 204              		.loc 1 166 0
 205 0016 8221     		movs	r1, #130
 206 0018 A020     		movs	r0, #160
 207              	.LVL11:
 208 001a C900     		lsls	r1, r1, #3
 209 001c C005     		lsls	r0, r0, #23
 210 001e FFF7FEFF 		bl	HAL_GPIO_DeInit
 211              	.LVL12:
 212              		.loc 1 173 0
 213 0022 F2E7     		b	.L9
 214              	.L13:
 215              		.align	2
ARM GAS  C:\Users\Nicolas\AppData\Local\Temp\ccsoban6.s 			page 8


 216              	.L12:
 217 0024 00540040 		.word	1073763328
 218 0028 00100240 		.word	1073876992
 219 002c FFFFDFFF 		.word	-2097153
 220              		.cfi_endproc
 221              	.LFE36:
 223              		.section	.text.HAL_UART_MspInit,"ax",%progbits
 224              		.align	1
 225              		.global	HAL_UART_MspInit
 226              		.syntax unified
 227              		.code	16
 228              		.thumb_func
 229              		.fpu softvfp
 231              	HAL_UART_MspInit:
 232              	.LFB37:
 174:Src/stm32l0xx_hal_msp.c **** 
 175:Src/stm32l0xx_hal_msp.c **** /**
 176:Src/stm32l0xx_hal_msp.c **** * @brief UART MSP Initialization
 177:Src/stm32l0xx_hal_msp.c **** * This function configures the hardware resources used in this example
 178:Src/stm32l0xx_hal_msp.c **** * @param huart: UART handle pointer
 179:Src/stm32l0xx_hal_msp.c **** * @retval None
 180:Src/stm32l0xx_hal_msp.c **** */
 181:Src/stm32l0xx_hal_msp.c **** void HAL_UART_MspInit(UART_HandleTypeDef* huart)
 182:Src/stm32l0xx_hal_msp.c **** {
 233              		.loc 1 182 0
 234              		.cfi_startproc
 235              		@ args = 0, pretend = 0, frame = 32
 236              		@ frame_needed = 0, uses_anonymous_args = 0
 237              	.LVL13:
 238 0000 10B5     		push	{r4, lr}
 239              	.LCFI3:
 240              		.cfi_def_cfa_offset 8
 241              		.cfi_offset 4, -8
 242              		.cfi_offset 14, -4
 243 0002 88B0     		sub	sp, sp, #32
 244              	.LCFI4:
 245              		.cfi_def_cfa_offset 40
 246 0004 0400     		movs	r4, r0
 183:Src/stm32l0xx_hal_msp.c **** 
 184:Src/stm32l0xx_hal_msp.c ****   GPIO_InitTypeDef GPIO_InitStruct = {0};
 247              		.loc 1 184 0
 248 0006 1422     		movs	r2, #20
 249 0008 0021     		movs	r1, #0
 250 000a 03A8     		add	r0, sp, #12
 251              	.LVL14:
 252 000c FFF7FEFF 		bl	memset
 253              	.LVL15:
 185:Src/stm32l0xx_hal_msp.c ****   if(huart->Instance==LPUART1)
 254              		.loc 1 185 0
 255 0010 2368     		ldr	r3, [r4]
 256 0012 254A     		ldr	r2, .L19
 257 0014 9342     		cmp	r3, r2
 258 0016 04D0     		beq	.L17
 186:Src/stm32l0xx_hal_msp.c ****   {
 187:Src/stm32l0xx_hal_msp.c ****   /* USER CODE BEGIN LPUART1_MspInit 0 */
 188:Src/stm32l0xx_hal_msp.c **** 
 189:Src/stm32l0xx_hal_msp.c ****   /* USER CODE END LPUART1_MspInit 0 */
ARM GAS  C:\Users\Nicolas\AppData\Local\Temp\ccsoban6.s 			page 9


 190:Src/stm32l0xx_hal_msp.c ****     /* Peripheral clock enable */
 191:Src/stm32l0xx_hal_msp.c ****     __HAL_RCC_LPUART1_CLK_ENABLE();
 192:Src/stm32l0xx_hal_msp.c ****   
 193:Src/stm32l0xx_hal_msp.c ****     __HAL_RCC_GPIOA_CLK_ENABLE();
 194:Src/stm32l0xx_hal_msp.c ****     /**LPUART1 GPIO Configuration    
 195:Src/stm32l0xx_hal_msp.c ****     PA0-CK_IN     ------> LPUART1_RX
 196:Src/stm32l0xx_hal_msp.c ****     PA1     ------> LPUART1_TX 
 197:Src/stm32l0xx_hal_msp.c ****     */
 198:Src/stm32l0xx_hal_msp.c ****     GPIO_InitStruct.Pin = GPIO_PIN_0|GPIO_PIN_1;
 199:Src/stm32l0xx_hal_msp.c ****     GPIO_InitStruct.Mode = GPIO_MODE_AF_PP;
 200:Src/stm32l0xx_hal_msp.c ****     GPIO_InitStruct.Pull = GPIO_NOPULL;
 201:Src/stm32l0xx_hal_msp.c ****     GPIO_InitStruct.Speed = GPIO_SPEED_FREQ_VERY_HIGH;
 202:Src/stm32l0xx_hal_msp.c ****     GPIO_InitStruct.Alternate = GPIO_AF6_LPUART1;
 203:Src/stm32l0xx_hal_msp.c ****     HAL_GPIO_Init(GPIOA, &GPIO_InitStruct);
 204:Src/stm32l0xx_hal_msp.c **** 
 205:Src/stm32l0xx_hal_msp.c ****     /* LPUART1 interrupt Init */
 206:Src/stm32l0xx_hal_msp.c ****     HAL_NVIC_SetPriority(LPUART1_IRQn, 0, 0);
 207:Src/stm32l0xx_hal_msp.c ****     HAL_NVIC_EnableIRQ(LPUART1_IRQn);
 208:Src/stm32l0xx_hal_msp.c ****   /* USER CODE BEGIN LPUART1_MspInit 1 */
 209:Src/stm32l0xx_hal_msp.c **** 
 210:Src/stm32l0xx_hal_msp.c ****   /* USER CODE END LPUART1_MspInit 1 */
 211:Src/stm32l0xx_hal_msp.c ****   }
 212:Src/stm32l0xx_hal_msp.c ****   else if(huart->Instance==USART2)
 259              		.loc 1 212 0
 260 0018 244A     		ldr	r2, .L19+4
 261 001a 9342     		cmp	r3, r2
 262 001c 24D0     		beq	.L18
 263              	.L14:
 213:Src/stm32l0xx_hal_msp.c ****   {
 214:Src/stm32l0xx_hal_msp.c ****   /* USER CODE BEGIN USART2_MspInit 0 */
 215:Src/stm32l0xx_hal_msp.c **** 
 216:Src/stm32l0xx_hal_msp.c ****   /* USER CODE END USART2_MspInit 0 */
 217:Src/stm32l0xx_hal_msp.c ****     /* Peripheral clock enable */
 218:Src/stm32l0xx_hal_msp.c ****     __HAL_RCC_USART2_CLK_ENABLE();
 219:Src/stm32l0xx_hal_msp.c ****   
 220:Src/stm32l0xx_hal_msp.c ****     __HAL_RCC_GPIOB_CLK_ENABLE();
 221:Src/stm32l0xx_hal_msp.c ****     /**USART2 GPIO Configuration    
 222:Src/stm32l0xx_hal_msp.c ****     PB6     ------> USART2_TX
 223:Src/stm32l0xx_hal_msp.c ****     PB7     ------> USART2_RX 
 224:Src/stm32l0xx_hal_msp.c ****     */
 225:Src/stm32l0xx_hal_msp.c ****     GPIO_InitStruct.Pin = GPIO_PIN_6|GPIO_PIN_7;
 226:Src/stm32l0xx_hal_msp.c ****     GPIO_InitStruct.Mode = GPIO_MODE_AF_PP;
 227:Src/stm32l0xx_hal_msp.c ****     GPIO_InitStruct.Pull = GPIO_NOPULL;
 228:Src/stm32l0xx_hal_msp.c ****     GPIO_InitStruct.Speed = GPIO_SPEED_FREQ_VERY_HIGH;
 229:Src/stm32l0xx_hal_msp.c ****     GPIO_InitStruct.Alternate = GPIO_AF0_USART2;
 230:Src/stm32l0xx_hal_msp.c ****     HAL_GPIO_Init(GPIOB, &GPIO_InitStruct);
 231:Src/stm32l0xx_hal_msp.c **** 
 232:Src/stm32l0xx_hal_msp.c ****     /* USART2 interrupt Init */
 233:Src/stm32l0xx_hal_msp.c ****     HAL_NVIC_SetPriority(USART2_IRQn, 0, 0);
 234:Src/stm32l0xx_hal_msp.c ****     HAL_NVIC_EnableIRQ(USART2_IRQn);
 235:Src/stm32l0xx_hal_msp.c ****   /* USER CODE BEGIN USART2_MspInit 1 */
 236:Src/stm32l0xx_hal_msp.c **** 
 237:Src/stm32l0xx_hal_msp.c ****   /* USER CODE END USART2_MspInit 1 */
 238:Src/stm32l0xx_hal_msp.c ****   }
 239:Src/stm32l0xx_hal_msp.c **** 
 240:Src/stm32l0xx_hal_msp.c **** }
 264              		.loc 1 240 0
ARM GAS  C:\Users\Nicolas\AppData\Local\Temp\ccsoban6.s 			page 10


 265 001e 08B0     		add	sp, sp, #32
 266              		@ sp needed
 267              	.LVL16:
 268 0020 10BD     		pop	{r4, pc}
 269              	.LVL17:
 270              	.L17:
 191:Src/stm32l0xx_hal_msp.c ****   
 271              		.loc 1 191 0
 272 0022 234B     		ldr	r3, .L19+8
 273 0024 996B     		ldr	r1, [r3, #56]
 274 0026 8022     		movs	r2, #128
 275 0028 D202     		lsls	r2, r2, #11
 276 002a 0A43     		orrs	r2, r1
 277 002c 9A63     		str	r2, [r3, #56]
 278              	.LBB3:
 193:Src/stm32l0xx_hal_msp.c ****     /**LPUART1 GPIO Configuration    
 279              		.loc 1 193 0
 280 002e D96A     		ldr	r1, [r3, #44]
 281 0030 0122     		movs	r2, #1
 282 0032 1143     		orrs	r1, r2
 283 0034 D962     		str	r1, [r3, #44]
 284 0036 DB6A     		ldr	r3, [r3, #44]
 285 0038 1A40     		ands	r2, r3
 286 003a 0192     		str	r2, [sp, #4]
 287 003c 019B     		ldr	r3, [sp, #4]
 288              	.LBE3:
 198:Src/stm32l0xx_hal_msp.c ****     GPIO_InitStruct.Mode = GPIO_MODE_AF_PP;
 289              		.loc 1 198 0
 290 003e 0323     		movs	r3, #3
 291 0040 0393     		str	r3, [sp, #12]
 199:Src/stm32l0xx_hal_msp.c ****     GPIO_InitStruct.Pull = GPIO_NOPULL;
 292              		.loc 1 199 0
 293 0042 0222     		movs	r2, #2
 294 0044 0492     		str	r2, [sp, #16]
 201:Src/stm32l0xx_hal_msp.c ****     GPIO_InitStruct.Alternate = GPIO_AF6_LPUART1;
 295              		.loc 1 201 0
 296 0046 0693     		str	r3, [sp, #24]
 202:Src/stm32l0xx_hal_msp.c ****     HAL_GPIO_Init(GPIOA, &GPIO_InitStruct);
 297              		.loc 1 202 0
 298 0048 0333     		adds	r3, r3, #3
 299 004a 0793     		str	r3, [sp, #28]
 203:Src/stm32l0xx_hal_msp.c **** 
 300              		.loc 1 203 0
 301 004c A020     		movs	r0, #160
 302 004e 03A9     		add	r1, sp, #12
 303 0050 C005     		lsls	r0, r0, #23
 304 0052 FFF7FEFF 		bl	HAL_GPIO_Init
 305              	.LVL18:
 206:Src/stm32l0xx_hal_msp.c ****     HAL_NVIC_EnableIRQ(LPUART1_IRQn);
 306              		.loc 1 206 0
 307 0056 0022     		movs	r2, #0
 308 0058 0021     		movs	r1, #0
 309 005a 1D20     		movs	r0, #29
 310 005c FFF7FEFF 		bl	HAL_NVIC_SetPriority
 311              	.LVL19:
 207:Src/stm32l0xx_hal_msp.c ****   /* USER CODE BEGIN LPUART1_MspInit 1 */
 312              		.loc 1 207 0
ARM GAS  C:\Users\Nicolas\AppData\Local\Temp\ccsoban6.s 			page 11


 313 0060 1D20     		movs	r0, #29
 314 0062 FFF7FEFF 		bl	HAL_NVIC_EnableIRQ
 315              	.LVL20:
 316 0066 DAE7     		b	.L14
 317              	.L18:
 218:Src/stm32l0xx_hal_msp.c ****   
 318              		.loc 1 218 0
 319 0068 114B     		ldr	r3, .L19+8
 320 006a 996B     		ldr	r1, [r3, #56]
 321 006c 8022     		movs	r2, #128
 322 006e 9202     		lsls	r2, r2, #10
 323 0070 0A43     		orrs	r2, r1
 324 0072 9A63     		str	r2, [r3, #56]
 325              	.LBB4:
 220:Src/stm32l0xx_hal_msp.c ****     /**USART2 GPIO Configuration    
 326              		.loc 1 220 0
 327 0074 D96A     		ldr	r1, [r3, #44]
 328 0076 0222     		movs	r2, #2
 329 0078 1143     		orrs	r1, r2
 330 007a D962     		str	r1, [r3, #44]
 331 007c DB6A     		ldr	r3, [r3, #44]
 332 007e 1340     		ands	r3, r2
 333 0080 0293     		str	r3, [sp, #8]
 334 0082 029B     		ldr	r3, [sp, #8]
 335              	.LBE4:
 225:Src/stm32l0xx_hal_msp.c ****     GPIO_InitStruct.Mode = GPIO_MODE_AF_PP;
 336              		.loc 1 225 0
 337 0084 C023     		movs	r3, #192
 338 0086 0393     		str	r3, [sp, #12]
 226:Src/stm32l0xx_hal_msp.c ****     GPIO_InitStruct.Pull = GPIO_NOPULL;
 339              		.loc 1 226 0
 340 0088 0492     		str	r2, [sp, #16]
 228:Src/stm32l0xx_hal_msp.c ****     GPIO_InitStruct.Alternate = GPIO_AF0_USART2;
 341              		.loc 1 228 0
 342 008a BD3B     		subs	r3, r3, #189
 343 008c 0693     		str	r3, [sp, #24]
 230:Src/stm32l0xx_hal_msp.c **** 
 344              		.loc 1 230 0
 345 008e 03A9     		add	r1, sp, #12
 346 0090 0848     		ldr	r0, .L19+12
 347 0092 FFF7FEFF 		bl	HAL_GPIO_Init
 348              	.LVL21:
 233:Src/stm32l0xx_hal_msp.c ****     HAL_NVIC_EnableIRQ(USART2_IRQn);
 349              		.loc 1 233 0
 350 0096 0022     		movs	r2, #0
 351 0098 0021     		movs	r1, #0
 352 009a 1C20     		movs	r0, #28
 353 009c FFF7FEFF 		bl	HAL_NVIC_SetPriority
 354              	.LVL22:
 234:Src/stm32l0xx_hal_msp.c ****   /* USER CODE BEGIN USART2_MspInit 1 */
 355              		.loc 1 234 0
 356 00a0 1C20     		movs	r0, #28
 357 00a2 FFF7FEFF 		bl	HAL_NVIC_EnableIRQ
 358              	.LVL23:
 359              		.loc 1 240 0
 360 00a6 BAE7     		b	.L14
 361              	.L20:
ARM GAS  C:\Users\Nicolas\AppData\Local\Temp\ccsoban6.s 			page 12


 362              		.align	2
 363              	.L19:
 364 00a8 00480040 		.word	1073760256
 365 00ac 00440040 		.word	1073759232
 366 00b0 00100240 		.word	1073876992
 367 00b4 00040050 		.word	1342178304
 368              		.cfi_endproc
 369              	.LFE37:
 371              		.section	.text.HAL_UART_MspDeInit,"ax",%progbits
 372              		.align	1
 373              		.global	HAL_UART_MspDeInit
 374              		.syntax unified
 375              		.code	16
 376              		.thumb_func
 377              		.fpu softvfp
 379              	HAL_UART_MspDeInit:
 380              	.LFB38:
 241:Src/stm32l0xx_hal_msp.c **** 
 242:Src/stm32l0xx_hal_msp.c **** /**
 243:Src/stm32l0xx_hal_msp.c **** * @brief UART MSP De-Initialization
 244:Src/stm32l0xx_hal_msp.c **** * This function freeze the hardware resources used in this example
 245:Src/stm32l0xx_hal_msp.c **** * @param huart: UART handle pointer
 246:Src/stm32l0xx_hal_msp.c **** * @retval None
 247:Src/stm32l0xx_hal_msp.c **** */
 248:Src/stm32l0xx_hal_msp.c **** 
 249:Src/stm32l0xx_hal_msp.c **** void HAL_UART_MspDeInit(UART_HandleTypeDef* huart)
 250:Src/stm32l0xx_hal_msp.c **** {
 381              		.loc 1 250 0
 382              		.cfi_startproc
 383              		@ args = 0, pretend = 0, frame = 0
 384              		@ frame_needed = 0, uses_anonymous_args = 0
 385              	.LVL24:
 386 0000 10B5     		push	{r4, lr}
 387              	.LCFI5:
 388              		.cfi_def_cfa_offset 8
 389              		.cfi_offset 4, -8
 390              		.cfi_offset 14, -4
 251:Src/stm32l0xx_hal_msp.c **** 
 252:Src/stm32l0xx_hal_msp.c ****   if(huart->Instance==LPUART1)
 391              		.loc 1 252 0
 392 0002 0368     		ldr	r3, [r0]
 393 0004 104A     		ldr	r2, .L26
 394 0006 9342     		cmp	r3, r2
 395 0008 03D0     		beq	.L24
 253:Src/stm32l0xx_hal_msp.c ****   {
 254:Src/stm32l0xx_hal_msp.c ****   /* USER CODE BEGIN LPUART1_MspDeInit 0 */
 255:Src/stm32l0xx_hal_msp.c **** 
 256:Src/stm32l0xx_hal_msp.c ****   /* USER CODE END LPUART1_MspDeInit 0 */
 257:Src/stm32l0xx_hal_msp.c ****     /* Peripheral clock disable */
 258:Src/stm32l0xx_hal_msp.c ****     __HAL_RCC_LPUART1_CLK_DISABLE();
 259:Src/stm32l0xx_hal_msp.c ****   
 260:Src/stm32l0xx_hal_msp.c ****     /**LPUART1 GPIO Configuration    
 261:Src/stm32l0xx_hal_msp.c ****     PA0-CK_IN     ------> LPUART1_RX
 262:Src/stm32l0xx_hal_msp.c ****     PA1     ------> LPUART1_TX 
 263:Src/stm32l0xx_hal_msp.c ****     */
 264:Src/stm32l0xx_hal_msp.c ****     HAL_GPIO_DeInit(GPIOA, GPIO_PIN_0|GPIO_PIN_1);
 265:Src/stm32l0xx_hal_msp.c **** 
ARM GAS  C:\Users\Nicolas\AppData\Local\Temp\ccsoban6.s 			page 13


 266:Src/stm32l0xx_hal_msp.c ****     /* LPUART1 interrupt DeInit */
 267:Src/stm32l0xx_hal_msp.c ****     HAL_NVIC_DisableIRQ(LPUART1_IRQn);
 268:Src/stm32l0xx_hal_msp.c ****   /* USER CODE BEGIN LPUART1_MspDeInit 1 */
 269:Src/stm32l0xx_hal_msp.c **** 
 270:Src/stm32l0xx_hal_msp.c ****   /* USER CODE END LPUART1_MspDeInit 1 */
 271:Src/stm32l0xx_hal_msp.c ****   }
 272:Src/stm32l0xx_hal_msp.c ****   else if(huart->Instance==USART2)
 396              		.loc 1 272 0
 397 000a 104A     		ldr	r2, .L26+4
 398 000c 9342     		cmp	r3, r2
 399 000e 0ED0     		beq	.L25
 400              	.LVL25:
 401              	.L21:
 273:Src/stm32l0xx_hal_msp.c ****   {
 274:Src/stm32l0xx_hal_msp.c ****   /* USER CODE BEGIN USART2_MspDeInit 0 */
 275:Src/stm32l0xx_hal_msp.c **** 
 276:Src/stm32l0xx_hal_msp.c ****   /* USER CODE END USART2_MspDeInit 0 */
 277:Src/stm32l0xx_hal_msp.c ****     /* Peripheral clock disable */
 278:Src/stm32l0xx_hal_msp.c ****     __HAL_RCC_USART2_CLK_DISABLE();
 279:Src/stm32l0xx_hal_msp.c ****   
 280:Src/stm32l0xx_hal_msp.c ****     /**USART2 GPIO Configuration    
 281:Src/stm32l0xx_hal_msp.c ****     PB6     ------> USART2_TX
 282:Src/stm32l0xx_hal_msp.c ****     PB7     ------> USART2_RX 
 283:Src/stm32l0xx_hal_msp.c ****     */
 284:Src/stm32l0xx_hal_msp.c ****     HAL_GPIO_DeInit(GPIOB, GPIO_PIN_6|GPIO_PIN_7);
 285:Src/stm32l0xx_hal_msp.c **** 
 286:Src/stm32l0xx_hal_msp.c ****     /* USART2 interrupt DeInit */
 287:Src/stm32l0xx_hal_msp.c ****     HAL_NVIC_DisableIRQ(USART2_IRQn);
 288:Src/stm32l0xx_hal_msp.c ****   /* USER CODE BEGIN USART2_MspDeInit 1 */
 289:Src/stm32l0xx_hal_msp.c **** 
 290:Src/stm32l0xx_hal_msp.c ****   /* USER CODE END USART2_MspDeInit 1 */
 291:Src/stm32l0xx_hal_msp.c ****   }
 292:Src/stm32l0xx_hal_msp.c **** 
 293:Src/stm32l0xx_hal_msp.c **** }
 402              		.loc 1 293 0
 403              		@ sp needed
 404 0010 10BD     		pop	{r4, pc}
 405              	.LVL26:
 406              	.L24:
 258:Src/stm32l0xx_hal_msp.c ****   
 407              		.loc 1 258 0
 408 0012 0F4A     		ldr	r2, .L26+8
 409 0014 936B     		ldr	r3, [r2, #56]
 410 0016 0F49     		ldr	r1, .L26+12
 411 0018 0B40     		ands	r3, r1
 412 001a 9363     		str	r3, [r2, #56]
 264:Src/stm32l0xx_hal_msp.c **** 
 413              		.loc 1 264 0
 414 001c A020     		movs	r0, #160
 415              	.LVL27:
 416 001e 0321     		movs	r1, #3
 417 0020 C005     		lsls	r0, r0, #23
 418 0022 FFF7FEFF 		bl	HAL_GPIO_DeInit
 419              	.LVL28:
 267:Src/stm32l0xx_hal_msp.c ****   /* USER CODE BEGIN LPUART1_MspDeInit 1 */
 420              		.loc 1 267 0
 421 0026 1D20     		movs	r0, #29
ARM GAS  C:\Users\Nicolas\AppData\Local\Temp\ccsoban6.s 			page 14


 422 0028 FFF7FEFF 		bl	HAL_NVIC_DisableIRQ
 423              	.LVL29:
 424 002c F0E7     		b	.L21
 425              	.LVL30:
 426              	.L25:
 278:Src/stm32l0xx_hal_msp.c ****   
 427              		.loc 1 278 0
 428 002e 084A     		ldr	r2, .L26+8
 429 0030 936B     		ldr	r3, [r2, #56]
 430 0032 0949     		ldr	r1, .L26+16
 431 0034 0B40     		ands	r3, r1
 432 0036 9363     		str	r3, [r2, #56]
 284:Src/stm32l0xx_hal_msp.c **** 
 433              		.loc 1 284 0
 434 0038 C021     		movs	r1, #192
 435 003a 0848     		ldr	r0, .L26+20
 436              	.LVL31:
 437 003c FFF7FEFF 		bl	HAL_GPIO_DeInit
 438              	.LVL32:
 287:Src/stm32l0xx_hal_msp.c ****   /* USER CODE BEGIN USART2_MspDeInit 1 */
 439              		.loc 1 287 0
 440 0040 1C20     		movs	r0, #28
 441 0042 FFF7FEFF 		bl	HAL_NVIC_DisableIRQ
 442              	.LVL33:
 443              		.loc 1 293 0
 444 0046 E3E7     		b	.L21
 445              	.L27:
 446              		.align	2
 447              	.L26:
 448 0048 00480040 		.word	1073760256
 449 004c 00440040 		.word	1073759232
 450 0050 00100240 		.word	1073876992
 451 0054 FFFFFBFF 		.word	-262145
 452 0058 FFFFFDFF 		.word	-131073
 453 005c 00040050 		.word	1342178304
 454              		.cfi_endproc
 455              	.LFE38:
 457              		.text
 458              	.Letext0:
 459              		.file 2 "c:\\program files (x86)\\gnu tools arm embedded\\7 2017-q4-major\\arm-none-eabi\\include\
 460              		.file 3 "c:\\program files (x86)\\gnu tools arm embedded\\7 2017-q4-major\\arm-none-eabi\\include\
 461              		.file 4 "Drivers/CMSIS/Device/ST/STM32L0xx/Include/system_stm32l0xx.h"
 462              		.file 5 "Drivers/CMSIS/Device/ST/STM32L0xx/Include/stm32l011xx.h"
 463              		.file 6 "Drivers/STM32L0xx_HAL_Driver/Inc/stm32l0xx_hal_def.h"
 464              		.file 7 "Drivers/STM32L0xx_HAL_Driver/Inc/stm32l0xx_hal_gpio.h"
 465              		.file 8 "Drivers/STM32L0xx_HAL_Driver/Inc/stm32l0xx_hal_dma.h"
 466              		.file 9 "Drivers/STM32L0xx_HAL_Driver/Inc/stm32l0xx_hal_i2c.h"
 467              		.file 10 "Drivers/STM32L0xx_HAL_Driver/Inc/stm32l0xx_hal_uart.h"
 468              		.file 11 "Drivers/STM32L0xx_HAL_Driver/Inc/stm32l0xx_hal.h"
 469              		.file 12 "Drivers/STM32L0xx_HAL_Driver/Inc/stm32l0xx_hal_cortex.h"
 470              		.file 13 "<built-in>"
ARM GAS  C:\Users\Nicolas\AppData\Local\Temp\ccsoban6.s 			page 15

